; Function Attrs: mustprogress uwtable
define dso_local { ptr, i64 } @_ZNK3net13NullEncrypter14GetNoncePrefixB5cxx11Ev(ptr nocapture nonnull readnone align 8 %this) unnamed_addr #1 align 2 {
entry:
  %retval = alloca %"class.base::BasicStringPiece", align 8
  call void @_ZN4base16BasicStringPieceINSt7__cxx1112basic_stringIcSt11char_traitsIcESaIcEEEEC1Ev(ptr noundef nonnull align 8 dereferenceable(16) %retval)
  %.fca.0.load = load ptr, ptr %retval, align 8
  %.fca.0.insert = insertvalue { ptr, i64 } poison, ptr %.fca.0.load, 0
  %.fca.1.gep = getelementptr inbounds i8, ptr %retval, i64 8
  %.fca.1.load = load i64, ptr %.fca.1.gep, align 8
  %.fca.1.insert = insertvalue { ptr, i64 } %.fca.0.insert, i64 %.fca.1.load, 1
  ret { ptr, i64 } %.fca.1.insert
}